target datalayout = "e-m:e-p270:32:32-p271:32:32-p272:64:64-i64:64-i128:128-f80:128-n8:16:32:64-S128"
target triple = "x86_64-pc-linux-gnu"

%struct.mbedtls_ecp_group = type { i32, %struct.mbedtls_mpi, %struct.mbedtls_mpi, %struct.mbedtls_mpi, %struct.mbedtls_ecp_point, %struct.mbedtls_mpi, i64, i64, i32, ptr, ptr, ptr, ptr, ptr, i64 }
%struct.mbedtls_ecp_point = type { %struct.mbedtls_mpi, %struct.mbedtls_mpi, %struct.mbedtls_mpi }
%struct.mbedtls_mpi = type { ptr, i16, i16 }

; Function Attrs: nounwind uwtable
define internal i32 @ecp_normalize_mxz(ptr noundef %0, ptr noundef %1) #0 {
  %3 = alloca ptr, align 8
  %4 = alloca ptr, align 8
  %5 = alloca i32, align 4
  store ptr %0, ptr %3, align 8, !tbaa !25
  store ptr %1, ptr %4, align 8, !tbaa !34
  call void @llvm.lifetime.start.p0(i64 4, ptr %5) #11
  store i32 -110, ptr %5, align 4, !tbaa !3
  br label %6

6:                                                ; preds = %2
  %7 = load ptr, ptr %4, align 8, !tbaa !34
  %8 = getelementptr inbounds nuw %struct.mbedtls_ecp_point, ptr %7, i32 0, i32 2
  %9 = load ptr, ptr %4, align 8, !tbaa !34
  %10 = getelementptr inbounds nuw %struct.mbedtls_ecp_point, ptr %9, i32 0, i32 2
  %11 = load ptr, ptr %3, align 8, !tbaa !25
  %12 = getelementptr inbounds nuw %struct.mbedtls_ecp_group, ptr %11, i32 0, i32 1
  %13 = call i32 @mbedtls_mpi_inv_mod(ptr noundef %8, ptr noundef %10, ptr noundef %12)
  store i32 %13, ptr %5, align 4, !tbaa !3
  %14 = icmp ne i32 %13, 0
  br i1 %14, label %15, label %16

15:                                               ; preds = %6
  br label %42

16:                                               ; preds = %6
  br label %17

17:                                               ; preds = %16
  br label %18

18:                                               ; preds = %17
  br label %19

19:                                               ; preds = %18
  %20 = load ptr, ptr %3, align 8, !tbaa !25
  %21 = load ptr, ptr %4, align 8, !tbaa !34
  %22 = getelementptr inbounds nuw %struct.mbedtls_ecp_point, ptr %21, i32 0, i32 0
  %23 = load ptr, ptr %4, align 8, !tbaa !34
  %24 = getelementptr inbounds nuw %struct.mbedtls_ecp_point, ptr %23, i32 0, i32 0
  %25 = load ptr, ptr %4, align 8, !tbaa !34
  %26 = getelementptr inbounds nuw %struct.mbedtls_ecp_point, ptr %25, i32 0, i32 2
  %27 = call i32 @mbedtls_mpi_mul_mod(ptr noundef %20, ptr noundef %22, ptr noundef %24, ptr noundef %26)
  store i32 %27, ptr %5, align 4, !tbaa !3
  %28 = icmp ne i32 %27, 0
  br i1 %28, label %29, label %30

29:                                               ; preds = %19
  br label %42

30:                                               ; preds = %19
  br label %31

31:                                               ; preds = %30
  br label %32

32:                                               ; preds = %31
  br label %33

33:                                               ; preds = %32
  %34 = load ptr, ptr %4, align 8, !tbaa !34
  %35 = getelementptr inbounds nuw %struct.mbedtls_ecp_point, ptr %34, i32 0, i32 2
  %36 = call i32 @mbedtls_mpi_lset(ptr noundef %35, i64 noundef 1)
  store i32 %36, ptr %5, align 4, !tbaa !3
  %37 = icmp ne i32 %36, 0
  br i1 %37, label %38, label %39

38:                                               ; preds = %33
  br label %42

39:                                               ; preds = %33
  br label %40

40:                                               ; preds = %39
  br label %41

41:                                               ; preds = %40
  br label %42

42:                                               ; preds = %41, %38, %29, %15
  %43 = load i32, ptr %5, align 4, !tbaa !3
  call void @llvm.lifetime.end.p0(i64 4, ptr %5) #11
  ret i32 %43
}