; Function Attrs: nounwind uwtable
define internal fastcc i32 @ecp_normalize_mxz(ptr noundef %0, ptr noundef %1) unnamed_addr #7 {
  %3 = getelementptr inbounds nuw i8, ptr %1, i64 32
  %4 = getelementptr inbounds nuw i8, ptr %0, i64 8
  %5 = tail call i32 @mbedtls_mpi_inv_mod(ptr noundef nonnull %3, ptr noundef nonnull %3, ptr noundef nonnull %4) #21
  %.not = icmp eq i32 %5, 0
  br i1 %.not, label %6, label %10

6:                                                ; preds = %2
  %7 = tail call fastcc i32 @mbedtls_mpi_mul_mod(ptr noundef nonnull %0, ptr noundef nonnull %1, ptr noundef nonnull %1, ptr noundef nonnull %3)
  %.not10 = icmp eq i32 %7, 0
  br i1 %.not10, label %8, label %10

8:                                                ; preds = %6
  %9 = tail call i32 @mbedtls_mpi_lset(ptr noundef nonnull %3, i64 noundef 1) #21
  br label %10

10:                                               ; preds = %8, %6, %2
  %.0 = phi i32 [ %5, %2 ], [ %7, %6 ], [ %9, %8 ]
  ret i32 %.0
}